; Function Attrs: nounwind uwtable
define internal void @filter_units_close(ptr noundef readonly captures(none) %0) #0 {
  %2 = getelementptr inbounds nuw i8, ptr %0, i64 16
  %3 = load ptr, ptr %2, align 8, !tbaa !4
  %4 = getelementptr inbounds nuw i8, ptr %3, i64 96
  tail call void @av_freep(ptr noundef nonnull %4) #4
  %5 = getelementptr inbounds nuw i8, ptr %3, i64 16
  tail call void @ff_cbs_fragment_free(ptr noundef nonnull %5) #4
  %6 = getelementptr inbounds nuw i8, ptr %3, i64 8
  tail call void @ff_cbs_close(ptr noundef nonnull %6) #4
  ret void
}